; ModuleID = '21/884.c'
source_filename = "21/884.c"
target datalayout = "e-m:e-p270:32:32-p271:32:32-p272:64:64-i64:64-f80:128-n8:16:32:64-S128"
target triple = "x86_64-pc-linux-gnu"

@.str = private unnamed_addr constant [3 x i8] c"%d\00", align 1
@.str.1 = private unnamed_addr constant [3 x i8] c"%f\00", align 1
@.str.2 = private unnamed_addr constant [4 x i8] c",%d\00", align 1

; Function Attrs: noinline nounwind uwtable
define dso_local i32 @main() #0 {
  %1 = alloca i32, align 4
  %2 = alloca i32, align 4
  %3 = alloca i32, align 4
  %4 = alloca i32, align 4
  %5 = alloca i32, align 4
  %6 = alloca i32, align 4
  %7 = alloca [300 x i32], align 16
  %8 = alloca float, align 4
  %9 = alloca [301 x float], align 16
  %10 = alloca float, align 4
  %11 = alloca float, align 4
  store i32 0, i32* %1, align 4
  store i32 0, i32* %4, align 4
  store float 0.000000e+00, float* %8, align 4
  %12 = bitcast [301 x float]* %9 to i8*
  call void @llvm.memset.p0i8.i64(i8* align 16 %12, i8 0, i64 1204, i1 false)
  %13 = call i32 (i8*, ...) @__isoc99_scanf(i8* getelementptr inbounds ([3 x i8], [3 x i8]* @.str, i64 0, i64 0), i32* %2)
  store i32 0, i32* %3, align 4
  br label %14

14:                                               ; preds = %29, %0
  %15 = load i32, i32* %3, align 4
  %16 = load i32, i32* %2, align 4
  %17 = icmp slt i32 %15, %16
  br i1 %17, label %18, label %32

18:                                               ; preds = %14
  %19 = load i32, i32* %3, align 4
  %20 = sext i32 %19 to i64
  %21 = getelementptr inbounds [301 x float], [301 x float]* %9, i64 0, i64 %20
  %22 = call i32 (i8*, ...) @__isoc99_scanf(i8* getelementptr inbounds ([3 x i8], [3 x i8]* @.str.1, i64 0, i64 0), float* %21)
  %23 = load float, float* %8, align 4
  %24 = load i32, i32* %3, align 4
  %25 = sext i32 %24 to i64
  %26 = getelementptr inbounds [301 x float], [301 x float]* %9, i64 0, i64 %25
  %27 = load float, float* %26, align 4
  %28 = fadd float %23, %27
  store float %28, float* %8, align 4
  br label %29

29:                                               ; preds = %18
  %30 = load i32, i32* %3, align 4
  %31 = add nsw i32 %30, 1
  store i32 %31, i32* %3, align 4
  br label %14

32:                                               ; preds = %14
  %33 = load float, float* %8, align 4
  %34 = load i32, i32* %2, align 4
  %35 = sitofp i32 %34 to float
  %36 = fdiv float %33, %35
  store float %36, float* %8, align 4
  store float 0.000000e+00, float* %10, align 4
  store float 0.000000e+00, float* %11, align 4
  store i32 0, i32* %3, align 4
  br label %37

37:                                               ; preds = %57, %32
  %38 = load i32, i32* %3, align 4
  %39 = load i32, i32* %2, align 4
  %40 = icmp slt i32 %38, %39
  br i1 %40, label %41, label %60

41:                                               ; preds = %37
  %42 = load i32, i32* %3, align 4
  %43 = sext i32 %42 to i64
  %44 = getelementptr inbounds [301 x float], [301 x float]* %9, i64 0, i64 %43
  %45 = load float, float* %44, align 4
  %46 = load float, float* %8, align 4
  %47 = fsub float %45, %46
  %48 = fpext float %47 to double
  %49 = call double @llvm.fabs.f64(double %48)
  %50 = fptrunc double %49 to float
  store float %50, float* %10, align 4
  %51 = load float, float* %10, align 4
  %52 = load float, float* %11, align 4
  %53 = fcmp ogt float %51, %52
  br i1 %53, label %54, label %56

54:                                               ; preds = %41
  %55 = load float, float* %10, align 4
  store float %55, float* %11, align 4
  br label %56

56:                                               ; preds = %54, %41
  br label %57

57:                                               ; preds = %56
  %58 = load i32, i32* %3, align 4
  %59 = add nsw i32 %58, 1
  store i32 %59, i32* %3, align 4
  br label %37

60:                                               ; preds = %37
  store i32 0, i32* %3, align 4
  br label %61

61:                                               ; preds = %92, %60
  %62 = load i32, i32* %3, align 4
  %63 = load i32, i32* %2, align 4
  %64 = icmp slt i32 %62, %63
  br i1 %64, label %65, label %95

65:                                               ; preds = %61
  %66 = load i32, i32* %3, align 4
  %67 = sext i32 %66 to i64
  %68 = getelementptr inbounds [301 x float], [301 x float]* %9, i64 0, i64 %67
  %69 = load float, float* %68, align 4
  %70 = load float, float* %8, align 4
  %71 = fsub float %69, %70
  %72 = fpext float %71 to double
  %73 = call double @llvm.fabs.f64(double %72)
  %74 = fptrunc double %73 to float
  store float %74, float* %10, align 4
  %75 = load float, float* %11, align 4
  %76 = load float, float* %10, align 4
  %77 = fsub float %75, %76
  %78 = fpext float %77 to double
  %79 = fcmp olt double %78, 0x3EB0C6F7A0B5ED8D
  br i1 %79, label %80, label %91

80:                                               ; preds = %65
  %81 = load i32, i32* %3, align 4
  %82 = sext i32 %81 to i64
  %83 = getelementptr inbounds [301 x float], [301 x float]* %9, i64 0, i64 %82
  %84 = load float, float* %83, align 4
  %85 = fptosi float %84 to i32
  %86 = load i32, i32* %4, align 4
  %87 = sext i32 %86 to i64
  %88 = getelementptr inbounds [300 x i32], [300 x i32]* %7, i64 0, i64 %87
  store i32 %85, i32* %88, align 4
  %89 = load i32, i32* %4, align 4
  %90 = add nsw i32 %89, 1
  store i32 %90, i32* %4, align 4
  br label %91

91:                                               ; preds = %80, %65
  br label %92

92:                                               ; preds = %91
  %93 = load i32, i32* %3, align 4
  %94 = add nsw i32 %93, 1
  store i32 %94, i32* %3, align 4
  br label %61

95:                                               ; preds = %61
  %96 = load i32, i32* %4, align 4
  store i32 %96, i32* %2, align 4
  store i32 0, i32* %3, align 4
  br label %97

97:                                               ; preds = %141, %95
  %98 = load i32, i32* %3, align 4
  %99 = load i32, i32* %2, align 4
  %100 = icmp slt i32 %98, %99
  br i1 %100, label %101, label %144

101:                                              ; preds = %97
  store i32 0, i32* %5, align 4
  br label %102

102:                                              ; preds = %137, %101
  %103 = load i32, i32* %5, align 4
  %104 = load i32, i32* %2, align 4
  %105 = sub nsw i32 %104, 1
  %106 = icmp slt i32 %103, %105
  br i1 %106, label %107, label %140

107:                                              ; preds = %102
  %108 = load i32, i32* %5, align 4
  %109 = sext i32 %108 to i64
  %110 = getelementptr inbounds [300 x i32], [300 x i32]* %7, i64 0, i64 %109
  %111 = load i32, i32* %110, align 4
  %112 = load i32, i32* %5, align 4
  %113 = add nsw i32 %112, 1
  %114 = sext i32 %113 to i64
  %115 = getelementptr inbounds [300 x i32], [300 x i32]* %7, i64 0, i64 %114
  %116 = load i32, i32* %115, align 4
  %117 = icmp sgt i32 %111, %116
  br i1 %117, label %118, label %136

118:                                              ; preds = %107
  %119 = load i32, i32* %5, align 4
  %120 = sext i32 %119 to i64
  %121 = getelementptr inbounds [300 x i32], [300 x i32]* %7, i64 0, i64 %120
  %122 = load i32, i32* %121, align 4
  store i32 %122, i32* %6, align 4
  %123 = load i32, i32* %5, align 4
  %124 = add nsw i32 %123, 1
  %125 = sext i32 %124 to i64
  %126 = getelementptr inbounds [300 x i32], [300 x i32]* %7, i64 0, i64 %125
  %127 = load i32, i32* %126, align 4
  %128 = load i32, i32* %5, align 4
  %129 = sext i32 %128 to i64
  %130 = getelementptr inbounds [300 x i32], [300 x i32]* %7, i64 0, i64 %129
  store i32 %127, i32* %130, align 4
  %131 = load i32, i32* %6, align 4
  %132 = load i32, i32* %5, align 4
  %133 = add nsw i32 %132, 1
  %134 = sext i32 %133 to i64
  %135 = getelementptr inbounds [300 x i32], [300 x i32]* %7, i64 0, i64 %134
  store i32 %131, i32* %135, align 4
  br label %136

136:                                              ; preds = %118, %107
  br label %137

137:                                              ; preds = %136
  %138 = load i32, i32* %5, align 4
  %139 = add nsw i32 %138, 1
  store i32 %139, i32* %5, align 4
  br label %102

140:                                              ; preds = %102
  br label %141

141:                                              ; preds = %140
  %142 = load i32, i32* %3, align 4
  %143 = add nsw i32 %142, 1
  store i32 %143, i32* %3, align 4
  br label %97

144:                                              ; preds = %97
  %145 = getelementptr inbounds [300 x i32], [300 x i32]* %7, i64 0, i64 0
  %146 = load i32, i32* %145, align 16
  %147 = call i32 (i8*, ...) @printf(i8* getelementptr inbounds ([3 x i8], [3 x i8]* @.str, i64 0, i64 0), i32 %146)
  store i32 1, i32* %3, align 4
  br label %148

148:                                              ; preds = %158, %144
  %149 = load i32, i32* %3, align 4
  %150 = load i32, i32* %2, align 4
  %151 = icmp slt i32 %149, %150
  br i1 %151, label %152, label %161

152:                                              ; preds = %148
  %153 = load i32, i32* %3, align 4
  %154 = sext i32 %153 to i64
  %155 = getelementptr inbounds [300 x i32], [300 x i32]* %7, i64 0, i64 %154
  %156 = load i32, i32* %155, align 4
  %157 = call i32 (i8*, ...) @printf(i8* getelementptr inbounds ([4 x i8], [4 x i8]* @.str.2, i64 0, i64 0), i32 %156)
  br label %158

158:                                              ; preds = %152
  %159 = load i32, i32* %3, align 4
  %160 = add nsw i32 %159, 1
  store i32 %160, i32* %3, align 4
  br label %148

161:                                              ; preds = %148
  ret i32 0
}

; Function Attrs: argmemonly nounwind willreturn
declare void @llvm.memset.p0i8.i64(i8* nocapture writeonly, i8, i64, i1 immarg) #1

declare dso_local i32 @__isoc99_scanf(i8*, ...) #2

; Function Attrs: nounwind readnone speculatable willreturn
declare double @llvm.fabs.f64(double) #3

declare dso_local i32 @printf(i8*, ...) #2


!llvm.module.flags = !{!0}
!llvm.ident = !{!1}

!0 = !{i32 1, !"wchar_size", i32 4}
!1 = !{!"clang version 10.0.0-4ubuntu1 "}
